target datalayout = "e-m:e-p270:32:32-p271:32:32-p272:64:64-i64:64-i128:128-f80:128-n8:16:32:64-S128"
target triple = "x86_64-pc-linux-gnu"

%struct.stat = type { i64, i64, i64, i32, i32, i32, i32, i64, i64, i64, i64, %struct.timespec, %struct.timespec, %struct.timespec, [3 x i64] }
%struct.timespec = type { i64, i64 }

; Function Attrs: mustprogress uwtable
define noundef i32 @_Z11GetFileAttrPKw(ptr noundef %0) #0 {
  %2 = alloca i32, align 4
  %3 = alloca ptr, align 8
  %4 = alloca [2048 x i8], align 16
  %5 = alloca %struct.stat, align 8
  store ptr %0, ptr %3, align 8
  %6 = load ptr, ptr %3, align 8
  %7 = getelementptr inbounds [2048 x i8], ptr %4, i64 0, i64 0
  %8 = call noundef zeroext i1 @_Z10WideToCharPKwPcm(ptr noundef %6, ptr noundef %7, i64 noundef 2048)
  %9 = getelementptr inbounds [2048 x i8], ptr %4, i64 0, i64 0
  %10 = call i32 @stat64(ptr noundef %9, ptr noundef %5) #9
  %11 = icmp ne i32 %10, 0
  br i1 %11, label %12, label %13

12:                                               ; preds = %1
  store i32 0, ptr %2, align 4
  br label %16

13:                                               ; preds = %1
  %14 = getelementptr inbounds %struct.stat, ptr %5, i32 0, i32 3
  %15 = load i32, ptr %14, align 8
  store i32 %15, ptr %2, align 4
  br label %16

16:                                               ; preds = %13, %12
  %17 = load i32, ptr %2, align 4
  ret i32 %17
}