; Function Attrs: mustprogress uwtable
define noundef i32 @_Z11GetFileAttrPKw(ptr noundef %0) local_unnamed_addr #0 {
  %2 = alloca [2048 x i8], align 16
  %3 = alloca %struct.stat, align 8
  %4 = call noundef zeroext i1 @_Z10WideToCharPKwPcm(ptr noundef %0, ptr noundef nonnull %2, i64 noundef 2048)
  %5 = call i32 @stat64(ptr noundef nonnull %2, ptr noundef nonnull %3) #14
  %.not = icmp eq i32 %5, 0
  %6 = getelementptr inbounds nuw i8, ptr %3, i64 24
  %7 = load i32, ptr %6, align 8
  %.0 = select i1 %.not, i32 %7, i32 0
  ret i32 %.0
}